target datalayout = "e-m:e-p270:32:32-p271:32:32-p272:64:64-i64:64-i128:128-f80:128-n8:16:32:64-S128"
target triple = "x86_64-pc-linux-gnu"

%struct.anon = type { i64, double, double, double }

@.str.27 = private unnamed_addr constant [19 x i8] c"N_VGetArrayPointer\00", align 1
@stderr = external global ptr, align 8
@.str.28 = private unnamed_addr constant [55 x i8] c"\0ASUNDIALS_ERROR: %s() failed - returned NULL pointer\0A\0A\00", align 1
@.str.29 = private unnamed_addr constant [48 x i8] c"\0ASUNDIALS_ERROR: %s() failed with retval = %d\0A\0A\00", align 1
@.str.30 = private unnamed_addr constant [53 x i8] c"\0AMEMORY_ERROR: %s() failed - returned NULL pointer\0A\0A\00", align 1

; Function Attrs: nounwind uwtable
define internal i32 @check_retval(ptr noundef %0, ptr noundef %1, i32 noundef %2) #0 {
  %4 = alloca i32, align 4
  %5 = alloca ptr, align 8
  %6 = alloca ptr, align 8
  %7 = alloca i32, align 4
  %8 = alloca ptr, align 8
  %9 = alloca i32, align 4
  store ptr %0, ptr %5, align 8, !tbaa !10
  store ptr %1, ptr %6, align 8, !tbaa !29
  store i32 %2, ptr %7, align 4, !tbaa !8
  call void @llvm.lifetime.start.p0(i64 8, ptr %8) #6
  %10 = load i32, ptr %7, align 4, !tbaa !8
  %11 = icmp eq i32 %10, 0
  br i1 %11, label %12, label %19

12:                                               ; preds = %3
  %13 = load ptr, ptr %5, align 8, !tbaa !10
  %14 = icmp eq ptr %13, null
  br i1 %14, label %15, label %19

15:                                               ; preds = %12
  %16 = load ptr, ptr @stderr, align 8, !tbaa !25
  %17 = load ptr, ptr %6, align 8, !tbaa !29
  %18 = call i32 (ptr, ptr, ...) @fprintf(ptr noundef %16, ptr noundef @.str.28, ptr noundef %17) #6
  store i32 1, ptr %4, align 4
  store i32 1, ptr %9, align 4
  br label %47

19:                                               ; preds = %12, %3
  %20 = load i32, ptr %7, align 4, !tbaa !8
  %21 = icmp eq i32 %20, 1
  br i1 %21, label %22, label %34

22:                                               ; preds = %19
  %23 = load ptr, ptr %5, align 8, !tbaa !10
  store ptr %23, ptr %8, align 8, !tbaa !31
  %24 = load ptr, ptr %8, align 8, !tbaa !31
  %25 = load i32, ptr %24, align 4, !tbaa !8
  %26 = icmp slt i32 %25, 0
  br i1 %26, label %27, label %33

27:                                               ; preds = %22
  %28 = load ptr, ptr @stderr, align 8, !tbaa !25
  %29 = load ptr, ptr %6, align 8, !tbaa !29
  %30 = load ptr, ptr %8, align 8, !tbaa !31
  %31 = load i32, ptr %30, align 4, !tbaa !8
  %32 = call i32 (ptr, ptr, ...) @fprintf(ptr noundef %28, ptr noundef @.str.29, ptr noundef %29, i32 noundef %31) #6
  store i32 1, ptr %4, align 4
  store i32 1, ptr %9, align 4
  br label %47

33:                                               ; preds = %22
  br label %45

34:                                               ; preds = %19
  %35 = load i32, ptr %7, align 4, !tbaa !8
  %36 = icmp eq i32 %35, 2
  br i1 %36, label %37, label %44

37:                                               ; preds = %34
  %38 = load ptr, ptr %5, align 8, !tbaa !10
  %39 = icmp eq ptr %38, null
  br i1 %39, label %40, label %44

40:                                               ; preds = %37
  %41 = load ptr, ptr @stderr, align 8, !tbaa !25
  %42 = load ptr, ptr %6, align 8, !tbaa !29
  %43 = call i32 (ptr, ptr, ...) @fprintf(ptr noundef %41, ptr noundef @.str.30, ptr noundef %42) #6
  store i32 1, ptr %4, align 4
  store i32 1, ptr %9, align 4
  br label %47

44:                                               ; preds = %37, %34
  br label %45

45:                                               ; preds = %44, %33
  br label %46

46:                                               ; preds = %45
  store i32 0, ptr %4, align 4
  store i32 1, ptr %9, align 4
  br label %47

47:                                               ; preds = %46, %40, %27, %15
  call void @llvm.lifetime.end.p0(i64 8, ptr %8) #6
  %48 = load i32, ptr %4, align 4
  ret i32 %48
}

; Function Attrs: nounwind uwtable
define internal i32 @ff(double noundef %0, ptr noundef %1, ptr noundef %2, ptr noundef %3) #0 {
  %5 = alloca i32, align 4
  %6 = alloca double, align 8
  %7 = alloca ptr, align 8
  %8 = alloca ptr, align 8
  %9 = alloca ptr, align 8
  %10 = alloca ptr, align 8
  %11 = alloca i64, align 8
  %12 = alloca ptr, align 8
  %13 = alloca ptr, align 8
  %14 = alloca i64, align 8
  %15 = alloca i32, align 4
  store double %0, ptr %6, align 8, !tbaa !4
  store ptr %1, ptr %7, align 8, !tbaa !14
  store ptr %2, ptr %8, align 8, !tbaa !14
  store ptr %3, ptr %9, align 8, !tbaa !10
  call void @llvm.lifetime.start.p0(i64 8, ptr %10) #6
  %16 = load ptr, ptr %9, align 8, !tbaa !10
  store ptr %16, ptr %10, align 8, !tbaa !10
  call void @llvm.lifetime.start.p0(i64 8, ptr %11) #6
  %17 = load ptr, ptr %10, align 8, !tbaa !10
  %18 = getelementptr inbounds nuw %struct.anon, ptr %17, i32 0, i32 0
  %19 = load i64, ptr %18, align 8, !tbaa !18
  store i64 %19, ptr %11, align 8, !tbaa !12
  call void @llvm.lifetime.start.p0(i64 8, ptr %12) #6
  store ptr null, ptr %12, align 8, !tbaa !27
  call void @llvm.lifetime.start.p0(i64 8, ptr %13) #6
  store ptr null, ptr %13, align 8, !tbaa !27
  call void @llvm.lifetime.start.p0(i64 8, ptr %14) #6
  %20 = load ptr, ptr %7, align 8, !tbaa !14
  %21 = call ptr @N_VGetArrayPointer(ptr noundef %20)
  store ptr %21, ptr %12, align 8, !tbaa !27
  %22 = load ptr, ptr %12, align 8, !tbaa !27
  %23 = call i32 @check_retval(ptr noundef %22, ptr noundef @.str.27, i32 noundef 0)
  %24 = icmp ne i32 %23, 0
  br i1 %24, label %25, label %26

25:                                               ; preds = %4
  store i32 1, ptr %5, align 4
  store i32 1, ptr %15, align 4
  br label %61

26:                                               ; preds = %4
  %27 = load ptr, ptr %8, align 8, !tbaa !14
  %28 = call ptr @N_VGetArrayPointer(ptr noundef %27)
  store ptr %28, ptr %13, align 8, !tbaa !27
  %29 = load ptr, ptr %13, align 8, !tbaa !27
  %30 = call i32 @check_retval(ptr noundef %29, ptr noundef @.str.27, i32 noundef 0)
  %31 = icmp ne i32 %30, 0
  br i1 %31, label %32, label %33

32:                                               ; preds = %26
  store i32 1, ptr %5, align 4
  store i32 1, ptr %15, align 4
  br label %61

33:                                               ; preds = %26
  store i64 0, ptr %14, align 8, !tbaa !12
  br label %34

34:                                               ; preds = %57, %33
  %35 = load i64, ptr %14, align 8, !tbaa !12
  %36 = load i64, ptr %11, align 8, !tbaa !12
  %37 = icmp slt i64 %35, %36
  br i1 %37, label %38, label %60

38:                                               ; preds = %34
  %39 = load ptr, ptr %12, align 8, !tbaa !27
  %40 = load i64, ptr %14, align 8, !tbaa !12
  %41 = getelementptr inbounds double, ptr %39, i64 %40
  %42 = load double, ptr %41, align 8, !tbaa !4
  %43 = load ptr, ptr %12, align 8, !tbaa !27
  %44 = load i64, ptr %14, align 8, !tbaa !12
  %45 = getelementptr inbounds double, ptr %43, i64 %44
  %46 = load double, ptr %45, align 8, !tbaa !4
  %47 = fmul double %42, %46
  %48 = load ptr, ptr %12, align 8, !tbaa !27
  %49 = load i64, ptr %14, align 8, !tbaa !12
  %50 = getelementptr inbounds double, ptr %48, i64 %49
  %51 = load double, ptr %50, align 8, !tbaa !4
  %52 = fsub double 1.000000e+00, %51
  %53 = fmul double %47, %52
  %54 = load ptr, ptr %13, align 8, !tbaa !27
  %55 = load i64, ptr %14, align 8, !tbaa !12
  %56 = getelementptr inbounds double, ptr %54, i64 %55
  store double %53, ptr %56, align 8, !tbaa !4
  br label %57

57:                                               ; preds = %38
  %58 = load i64, ptr %14, align 8, !tbaa !12
  %59 = add nsw i64 %58, 1
  store i64 %59, ptr %14, align 8, !tbaa !12
  br label %34

60:                                               ; preds = %34
  store i32 0, ptr %5, align 4
  store i32 1, ptr %15, align 4
  br label %61

61:                                               ; preds = %60, %32, %25
  call void @llvm.lifetime.end.p0(i64 8, ptr %14) #6
  call void @llvm.lifetime.end.p0(i64 8, ptr %13) #6
  call void @llvm.lifetime.end.p0(i64 8, ptr %12) #6
  call void @llvm.lifetime.end.p0(i64 8, ptr %11) #6
  call void @llvm.lifetime.end.p0(i64 8, ptr %10) #6
  %62 = load i32, ptr %5, align 4
  ret i32 %62
}