; Function Attrs: nounwind uwtable
define internal range(i32 0, 2) i32 @ff(double %0, ptr noundef %1, ptr noundef %2, ptr noundef readonly captures(none) %3) #0 {
  %5 = load i64, ptr %3, align 8, !tbaa !11
  %6 = tail call ptr @N_VGetArrayPointer(ptr noundef %1) #9
  %7 = icmp eq ptr %6, null
  br i1 %7, label %.loopexit.sink.split, label %8

8:                                                ; preds = %4
  %9 = tail call ptr @N_VGetArrayPointer(ptr noundef %2) #9
  %10 = icmp eq ptr %9, null
  br i1 %10, label %.loopexit.sink.split, label %check_retval.exit20.preheader

check_retval.exit20.preheader:                    ; preds = %8
  %11 = icmp sgt i64 %5, 0
  br i1 %11, label %check_retval.exit20, label %.loopexit

check_retval.exit20:                              ; preds = %check_retval.exit20.preheader, %check_retval.exit20
  %.025 = phi i64 [ %18, %check_retval.exit20 ], [ 0, %check_retval.exit20.preheader ]
  %12 = getelementptr inbounds nuw double, ptr %6, i64 %.025
  %13 = load double, ptr %12, align 8, !tbaa !22
  %14 = fmul double %13, %13
  %15 = fsub double 1.000000e+00, %13
  %16 = fmul double %14, %15
  %17 = getelementptr inbounds nuw double, ptr %9, i64 %.025
  store double %16, ptr %17, align 8, !tbaa !22
  %18 = add nuw nsw i64 %.025, 1
  %exitcond.not = icmp eq i64 %18, %5
  br i1 %exitcond.not, label %.loopexit, label %check_retval.exit20

.loopexit.sink.split:                             ; preds = %8, %4
  %19 = load ptr, ptr @stderr, align 8, !tbaa !9
  %20 = tail call i32 (ptr, ptr, ...) @fprintf(ptr noundef %19, ptr noundef nonnull @.str.28, ptr noundef nonnull @.str.27) #10
  br label %.loopexit

.loopexit:                                        ; preds = %check_retval.exit20, %.loopexit.sink.split, %check_retval.exit20.preheader
  %.017 = phi i32 [ 0, %check_retval.exit20.preheader ], [ 1, %.loopexit.sink.split ], [ 0, %check_retval.exit20 ]
  ret i32 %.017
}